; Function Attrs: mustprogress nounwind uwtable
define dso_local noundef i32 @napi_get_buffer_info(ptr noundef %env, ptr noundef %value, ptr noundef writeonly %data, ptr noundef writeonly %length) local_unnamed_addr #3 {
entry:
  %cmp = icmp eq ptr %env, null
  br i1 %cmp, label %return, label %do.end

do.end:                                           ; preds = %entry
  %module_api_version.i = getelementptr inbounds i8, ptr %env, i64 184
  %0 = load i32, ptr %module_api_version.i, align 8
  %cmp.i = icmp eq i32 %0, 2147483647
  br i1 %cmp.i, label %land.lhs.true.i, label %_ZN10napi_env__13CheckGCAccessEv.exit

land.lhs.true.i:                                  ; preds = %do.end
  %in_gc_finalizer.i = getelementptr inbounds i8, ptr %env, i64 188
  %1 = load i8, ptr %in_gc_finalizer.i, align 4
  %2 = and i8 %1, 1
  %tobool.not.i = icmp eq i8 %2, 0
  br i1 %tobool.not.i, label %_ZN10napi_env__13CheckGCAccessEv.exit, label %if.then.i

if.then.i:                                        ; preds = %land.lhs.true.i
  tail call void @_ZN6v8impl12OnFatalErrorEPKcS1_(ptr noundef null, ptr noundef nonnull @.str.38) #25
  unreachable

_ZN10napi_env__13CheckGCAccessEv.exit:            ; preds = %do.end, %land.lhs.true.i
  %cmp4.not = icmp eq ptr %value, null
  br i1 %cmp4.not, label %if.then5, label %do.end7

if.then5:                                         ; preds = %_ZN10napi_env__13CheckGCAccessEv.exit
  %error_code1.i = getelementptr inbounds i8, ptr %env, i64 156
  store i32 1, ptr %error_code1.i, align 4
  %engine_error_code3.i = getelementptr inbounds i8, ptr %env, i64 152
  store i32 0, ptr %engine_error_code3.i, align 8
  %engine_reserved5.i = getelementptr inbounds i8, ptr %env, i64 144
  store ptr null, ptr %engine_reserved5.i, align 8
  br label %return

do.end7:                                          ; preds = %_ZN10napi_env__13CheckGCAccessEv.exit
  %cmp11.not = icmp eq ptr %data, null
  br i1 %cmp11.not, label %if.end17, label %if.then12

if.then12:                                        ; preds = %do.end7
  %call16 = tail call noundef ptr @_ZN4node6Buffer4DataEN2v85LocalINS1_5ValueEEE(ptr nonnull %value) #21
  store ptr %call16, ptr %data, align 8
  br label %if.end17

if.end17:                                         ; preds = %if.then12, %do.end7
  %cmp18.not = icmp eq ptr %length, null
  br i1 %cmp18.not, label %if.end25, label %if.then19

if.then19:                                        ; preds = %if.end17
  %call24 = tail call noundef i64 @_ZN4node6Buffer6LengthEN2v85LocalINS1_5ValueEEE(ptr nonnull %value) #21
  store i64 %call24, ptr %length, align 8
  br label %if.end25

if.end25:                                         ; preds = %if.then19, %if.end17
  %last_error.i = getelementptr inbounds i8, ptr %env, i64 136
  tail call void @llvm.memset.p0.i64(ptr noundef nonnull align 8 dereferenceable(24) %last_error.i, i8 0, i64 24, i1 false)
  br label %return

return:                                           ; preds = %entry, %if.end25, %if.then5
  %retval.0 = phi i32 [ 0, %if.end25 ], [ 1, %if.then5 ], [ 1, %entry ]
  ret i32 %retval.0
}